; Function Attrs: mustprogress nofree nounwind willreturn memory(read) uwtable
define noundef zeroext i1 @_ZNK5osgeo4proj5datum9Ellipsoid8isSphereEv(ptr nocapture noundef nonnull readonly align 8 dereferenceable(64) %0) local_unnamed_addr #15 align 2 personality ptr @__gxx_personality_v0 {
  %2 = getelementptr inbounds i8, ptr %0, i64 56
  %3 = load ptr, ptr %2, align 8
  %4 = getelementptr inbounds i8, ptr %3, i64 24
  %5 = load i8, ptr %4, align 8
  %6 = trunc i8 %5 to i1
  br i1 %6, label %7, label %11

7:                                                ; preds = %1
  %8 = getelementptr inbounds i8, ptr %3, i64 32
  %9 = tail call noundef double @_ZNK5osgeo4proj6common7Measure5valueEv(ptr noundef nonnull align 8 dereferenceable(24) %8) #25
  %10 = fcmp oeq double %9, 0.000000e+00
  br label %18

11:                                               ; preds = %1
  %12 = getelementptr inbounds i8, ptr %3, i64 56
  %13 = load i8, ptr %12, align 8
  %14 = trunc i8 %13 to i1
  br i1 %14, label %15, label %18

15:                                               ; preds = %11
  %16 = getelementptr inbounds i8, ptr %3, i64 64
  %17 = tail call noundef zeroext i1 @_ZNK5osgeo4proj6common7MeasureeqERKS2_(ptr noundef nonnull align 8 dereferenceable(24) %3, ptr noundef nonnull align 8 dereferenceable(24) %16) #25
  br label %18

18:                                               ; preds = %11, %15, %7
  %.0 = phi i1 [ %10, %7 ], [ %17, %15 ], [ true, %11 ]
  ret i1 %.0
}